target datalayout = "e-m:e-p270:32:32-p271:32:32-p272:64:64-i64:64-i128:128-f80:128-n8:16:32:64-S128"
target triple = "x86_64-unknown-linux-gnu"

; Function Attrs: mustprogress nounwind uwtable
define linkonce_odr noundef ptr @_ZN6icu_758Collator13fromUCollatorEPK9UCollator(ptr noundef %uc) #1 comdat align 2 {
entry:
  %uc.addr = alloca ptr, align 8
  store ptr %uc, ptr %uc.addr, align 8
  %0 = load ptr, ptr %uc.addr, align 8
  ret ptr %0
}

; Function Attrs: mustprogress nounwind uwtable
define internal noundef signext i8 @_ZL9U_FAILURE10UErrorCode(i32 noundef %code) #1 {
entry:
  %code.addr = alloca i32, align 4
  store i32 %code, ptr %code.addr, align 4
  %0 = load i32, ptr %code.addr, align 4
  %cmp = icmp sgt i32 %0, 0
  %conv = zext i1 %cmp to i8
  ret i8 %conv
}

; Function Attrs: mustprogress uwtable
define i32 @ucol_strcollIter_75(ptr noundef %coll, ptr noundef %sIter, ptr noundef %tIter, ptr noundef %status) #0 {
entry:
  %retval = alloca i32, align 4
  %coll.addr = alloca ptr, align 8
  %sIter.addr = alloca ptr, align 8
  %tIter.addr = alloca ptr, align 8
  %status.addr = alloca ptr, align 8
  %result = alloca i32, align 4
  store ptr %coll, ptr %coll.addr, align 8
  store ptr %sIter, ptr %sIter.addr, align 8
  store ptr %tIter, ptr %tIter.addr, align 8
  store ptr %status, ptr %status.addr, align 8
  %0 = load ptr, ptr %status.addr, align 8
  %tobool = icmp ne ptr %0, null
  br i1 %tobool, label %lor.lhs.false, label %if.then

lor.lhs.false:                                    ; preds = %entry
  %1 = load ptr, ptr %status.addr, align 8
  %2 = load i32, ptr %1, align 4
  %call = call noundef signext i8 @_ZL9U_FAILURE10UErrorCode(i32 noundef %2)
  %tobool1 = icmp ne i8 %call, 0
  br i1 %tobool1, label %if.then, label %if.end

if.then:                                          ; preds = %lor.lhs.false, %entry
  store i32 0, ptr %retval, align 4
  br label %return

if.end:                                           ; preds = %lor.lhs.false
  %3 = load ptr, ptr %sIter.addr, align 8
  %cmp = icmp eq ptr %3, null
  br i1 %cmp, label %if.then6, label %lor.lhs.false2

lor.lhs.false2:                                   ; preds = %if.end
  %4 = load ptr, ptr %tIter.addr, align 8
  %cmp3 = icmp eq ptr %4, null
  br i1 %cmp3, label %if.then6, label %lor.lhs.false4

lor.lhs.false4:                                   ; preds = %lor.lhs.false2
  %5 = load ptr, ptr %coll.addr, align 8
  %cmp5 = icmp eq ptr %5, null
  br i1 %cmp5, label %if.then6, label %if.end7

if.then6:                                         ; preds = %lor.lhs.false4, %lor.lhs.false2, %if.end
  %6 = load ptr, ptr %status.addr, align 8
  store i32 1, ptr %6, align 4
  store i32 0, ptr %retval, align 4
  br label %return

if.end7:                                          ; preds = %lor.lhs.false4
  %7 = load ptr, ptr %coll.addr, align 8
  %call8 = call noundef ptr @_ZN6icu_758Collator13fromUCollatorEPK9UCollator(ptr noundef %7)
  %8 = load ptr, ptr %sIter.addr, align 8
  %9 = load ptr, ptr %tIter.addr, align 8
  %10 = load ptr, ptr %status.addr, align 8
  %vtable = load ptr, ptr %call8, align 8
  %vfn = getelementptr inbounds ptr, ptr %vtable, i64 12
  %11 = load ptr, ptr %vfn, align 8
  %call9 = call noundef i32 %11(ptr noundef nonnull align 8 dereferenceable(8) %call8, ptr noundef nonnull align 8 dereferenceable(112) %8, ptr noundef nonnull align 8 dereferenceable(112) %9, ptr noundef nonnull align 4 dereferenceable(4) %10)
  store i32 %call9, ptr %result, align 4
  %12 = load i32, ptr %result, align 4
  store i32 %12, ptr %retval, align 4
  br label %return

return:                                           ; preds = %if.end7, %if.then6, %if.then
  %13 = load i32, ptr %retval, align 4
  ret i32 %13
}