; Function Attrs: mustprogress uwtable
define noundef i32 @ucol_strcollIter_75(ptr noundef %coll, ptr noundef %sIter, ptr noundef %tIter, ptr noundef %status) local_unnamed_addr #0 {
entry:
  %tobool.not = icmp eq ptr %status, null
  br i1 %tobool.not, label %return, label %lor.lhs.false

lor.lhs.false:                                    ; preds = %entry
  %0 = load i32, ptr %status, align 4
  %cmp.i = icmp slt i32 %0, 1
  br i1 %cmp.i, label %if.end, label %return

if.end:                                           ; preds = %lor.lhs.false
  %cmp = icmp eq ptr %sIter, null
  %cmp3 = icmp eq ptr %tIter, null
  %or.cond = or i1 %cmp, %cmp3
  %cmp5 = icmp eq ptr %coll, null
  %or.cond1 = or i1 %cmp5, %or.cond
  br i1 %or.cond1, label %if.then6, label %if.end7

if.then6:                                         ; preds = %if.end
  store i32 1, ptr %status, align 4
  br label %return

if.end7:                                          ; preds = %if.end
  %vtable = load ptr, ptr %coll, align 8
  %vfn = getelementptr inbounds i8, ptr %vtable, i64 96
  %1 = load ptr, ptr %vfn, align 8
  %call9 = tail call noundef i32 %1(ptr noundef nonnull align 8 dereferenceable(8) %coll, ptr noundef nonnull align 8 dereferenceable(112) %sIter, ptr noundef nonnull align 8 dereferenceable(112) %tIter, ptr noundef nonnull align 4 dereferenceable(4) %status)
  br label %return

return:                                           ; preds = %entry, %lor.lhs.false, %if.end7, %if.then6
  %retval.0 = phi i32 [ 0, %if.then6 ], [ %call9, %if.end7 ], [ 0, %lor.lhs.false ], [ 0, %entry ]
  ret i32 %retval.0
}